target datalayout = "e-m:e-p270:32:32-p271:32:32-p272:64:64-i64:64-i128:128-f80:128-n8:16:32:64-S128"
target triple = "x86_64-pc-linux-gnu"

%class.rcIntArray = type { %class.rcTempVector }
%class.rcTempVector = type { %class.rcVectorBase }
%class.rcVectorBase = type { i64, i64, ptr }

@.str.12 = private unnamed_addr constant [140 x i8] c"generated/home/dtcxzyw/WorkSpace/Projects/compilers/llvm-opt-benchmark/bench/recastnavigation/recastnavigation/Recast/Include/RecastAlloc.h\00", align 1
@.str.22 = private unnamed_addr constant [21 x i8] c"i >= 0 && i < m_size\00", align 1

; Function Attrs: mustprogress uwtable
define linkonce_odr noundef nonnull align 4 dereferenceable(4) ptr @_ZN12rcVectorBaseIiL11rcAllocHint1EEixEl(ptr noundef nonnull align 8 dereferenceable(24) %0, i64 noundef %1) #0 comdat align 2 {
  %3 = alloca ptr, align 8
  %4 = alloca i64, align 8
  %5 = alloca ptr, align 8
  store ptr %0, ptr %3, align 8
  store i64 %1, ptr %4, align 8
  %6 = load ptr, ptr %3, align 8
  %7 = call noundef ptr @_Z21rcAssertFailGetCustomv()
  store ptr %7, ptr %5, align 8
  %8 = load ptr, ptr %5, align 8
  %9 = icmp eq ptr %8, null
  br i1 %9, label %10, label %11

10:                                               ; preds = %2
  br label %22

11:                                               ; preds = %2
  %12 = load i64, ptr %4, align 8
  %13 = icmp sge i64 %12, 0
  br i1 %13, label %14, label %19

14:                                               ; preds = %11
  %15 = load i64, ptr %4, align 8
  %16 = getelementptr inbounds %class.rcVectorBase, ptr %6, i32 0, i32 0
  %17 = load i64, ptr %16, align 8
  %18 = icmp slt i64 %15, %17
  br i1 %18, label %21, label %19

19:                                               ; preds = %14, %11
  %20 = load ptr, ptr %5, align 8
  call void %20(ptr noundef @.str.22, ptr noundef @.str.12, i32 noundef 150)
  br label %21

21:                                               ; preds = %19, %14
  br label %22

22:                                               ; preds = %21, %10
  %23 = getelementptr inbounds %class.rcVectorBase, ptr %6, i32 0, i32 2
  %24 = load ptr, ptr %23, align 8
  %25 = load i64, ptr %4, align 8
  %26 = getelementptr inbounds i32, ptr %24, i64 %25
  ret ptr %26
}

; Function Attrs: mustprogress nounwind uwtable
define linkonce_odr noundef i64 @_ZNK12rcVectorBaseIiL11rcAllocHint1EE4sizeEv(ptr noundef nonnull align 8 dereferenceable(24) %0) #2 comdat align 2 {
  %2 = alloca ptr, align 8
  store ptr %0, ptr %2, align 8
  %3 = load ptr, ptr %2, align 8
  %4 = getelementptr inbounds %class.rcVectorBase, ptr %3, i32 0, i32 0
  %5 = load i64, ptr %4, align 8
  ret i64 %5
}

; Function Attrs: mustprogress nounwind uwtable
define internal noundef zeroext i1 @_ZL6onHulliiiPi(i32 noundef %0, i32 noundef %1, i32 noundef %2, ptr noundef %3) #2 {
  %5 = alloca i1, align 1
  %6 = alloca i32, align 4
  %7 = alloca i32, align 4
  %8 = alloca i32, align 4
  %9 = alloca ptr, align 8
  %10 = alloca i32, align 4
  %11 = alloca i32, align 4
  store i32 %0, ptr %6, align 4
  store i32 %1, ptr %7, align 4
  store i32 %2, ptr %8, align 4
  store ptr %3, ptr %9, align 8
  %12 = load i32, ptr %6, align 4
  %13 = load i32, ptr %8, align 4
  %14 = icmp sge i32 %12, %13
  br i1 %14, label %19, label %15

15:                                               ; preds = %4
  %16 = load i32, ptr %7, align 4
  %17 = load i32, ptr %8, align 4
  %18 = icmp sge i32 %16, %17
  br i1 %18, label %19, label %20

19:                                               ; preds = %15, %4
  store i1 false, ptr %5, align 1
  br label %49

20:                                               ; preds = %15
  %21 = load i32, ptr %8, align 4
  %22 = sub nsw i32 %21, 1
  store i32 %22, ptr %10, align 4
  store i32 0, ptr %11, align 4
  br label %23

23:                                               ; preds = %45, %20
  %24 = load i32, ptr %11, align 4
  %25 = load i32, ptr %8, align 4
  %26 = icmp slt i32 %24, %25
  br i1 %26, label %27, label %48

27:                                               ; preds = %23
  %28 = load i32, ptr %6, align 4
  %29 = load ptr, ptr %9, align 8
  %30 = load i32, ptr %10, align 4
  %31 = sext i32 %30 to i64
  %32 = getelementptr inbounds i32, ptr %29, i64 %31
  %33 = load i32, ptr %32, align 4
  %34 = icmp eq i32 %28, %33
  br i1 %34, label %35, label %44

35:                                               ; preds = %27
  %36 = load i32, ptr %7, align 4
  %37 = load ptr, ptr %9, align 8
  %38 = load i32, ptr %11, align 4
  %39 = sext i32 %38 to i64
  %40 = getelementptr inbounds i32, ptr %37, i64 %39
  %41 = load i32, ptr %40, align 4
  %42 = icmp eq i32 %36, %41
  br i1 %42, label %43, label %44

43:                                               ; preds = %35
  store i1 true, ptr %5, align 1
  br label %49

44:                                               ; preds = %35, %27
  br label %45

45:                                               ; preds = %44
  %46 = load i32, ptr %11, align 4
  %47 = add nsw i32 %46, 1
  store i32 %47, ptr %11, align 4
  store i32 %46, ptr %10, align 4
  br label %23, !llvm.loop !62

48:                                               ; preds = %23
  store i1 false, ptr %5, align 1
  br label %49

49:                                               ; preds = %48, %43, %19
  %50 = load i1, ptr %5, align 1
  ret i1 %50
}

; Function Attrs: mustprogress uwtable
define linkonce_odr noundef nonnull align 4 dereferenceable(4) ptr @_ZN10rcIntArrayixEi(ptr noundef nonnull align 8 dereferenceable(24) %0, i32 noundef %1) #0 comdat align 2 {
  %3 = alloca ptr, align 8
  %4 = alloca i32, align 4
  store ptr %0, ptr %3, align 8
  store i32 %1, ptr %4, align 4
  %5 = load ptr, ptr %3, align 8
  %6 = getelementptr inbounds %class.rcIntArray, ptr %5, i32 0, i32 0
  %7 = load i32, ptr %4, align 4
  %8 = sext i32 %7 to i64
  %9 = call noundef nonnull align 4 dereferenceable(4) ptr @_ZN12rcVectorBaseIiL11rcAllocHint1EEixEl(ptr noundef nonnull align 8 dereferenceable(24) %6, i64 noundef %8)
  ret ptr %9
}

; Function Attrs: mustprogress uwtable
define linkonce_odr noundef i32 @_ZNK10rcIntArray4sizeEv(ptr noundef nonnull align 8 dereferenceable(24) %0) #0 comdat align 2 {
  %2 = alloca ptr, align 8
  store ptr %0, ptr %2, align 8
  %3 = load ptr, ptr %2, align 8
  %4 = getelementptr inbounds %class.rcIntArray, ptr %3, i32 0, i32 0
  %5 = call noundef i64 @_ZNK12rcVectorBaseIiL11rcAllocHint1EE4sizeEv(ptr noundef nonnull align 8 dereferenceable(24) %4)
  %6 = trunc i64 %5 to i32
  ret i32 %6
}

; Function Attrs: mustprogress uwtable
define internal void @_ZL11setTriFlagsR10rcIntArrayiPi(ptr noundef nonnull align 8 dereferenceable(24) %0, i32 noundef %1, ptr noundef %2) #0 {
  %4 = alloca ptr, align 8
  %5 = alloca i32, align 4
  %6 = alloca ptr, align 8
  %7 = alloca i32, align 4
  %8 = alloca i32, align 4
  %9 = alloca i32, align 4
  %10 = alloca i32, align 4
  %11 = alloca i32, align 4
  %12 = alloca i16, align 2
  store ptr %0, ptr %4, align 8
  store i32 %1, ptr %5, align 4
  store ptr %2, ptr %6, align 8
  store i32 1, ptr %7, align 4
  store i32 0, ptr %8, align 4
  br label %13

13:                                               ; preds = %73, %3
  %14 = load i32, ptr %8, align 4
  %15 = load ptr, ptr %4, align 8
  %16 = call noundef i32 @_ZNK10rcIntArray4sizeEv(ptr noundef nonnull align 8 dereferenceable(24) %15)
  %17 = icmp slt i32 %14, %16
  br i1 %17, label %18, label %76

18:                                               ; preds = %13
  %19 = load ptr, ptr %4, align 8
  %20 = load i32, ptr %8, align 4
  %21 = add nsw i32 %20, 0
  %22 = call noundef nonnull align 4 dereferenceable(4) ptr @_ZN10rcIntArrayixEi(ptr noundef nonnull align 8 dereferenceable(24) %19, i32 noundef %21)
  %23 = load i32, ptr %22, align 4
  store i32 %23, ptr %9, align 4
  %24 = load ptr, ptr %4, align 8
  %25 = load i32, ptr %8, align 4
  %26 = add nsw i32 %25, 1
  %27 = call noundef nonnull align 4 dereferenceable(4) ptr @_ZN10rcIntArrayixEi(ptr noundef nonnull align 8 dereferenceable(24) %24, i32 noundef %26)
  %28 = load i32, ptr %27, align 4
  store i32 %28, ptr %10, align 4
  %29 = load ptr, ptr %4, align 8
  %30 = load i32, ptr %8, align 4
  %31 = add nsw i32 %30, 2
  %32 = call noundef nonnull align 4 dereferenceable(4) ptr @_ZN10rcIntArrayixEi(ptr noundef nonnull align 8 dereferenceable(24) %29, i32 noundef %31)
  %33 = load i32, ptr %32, align 4
  store i32 %33, ptr %11, align 4
  store i16 0, ptr %12, align 2
  %34 = load i32, ptr %9, align 4
  %35 = load i32, ptr %10, align 4
  %36 = load i32, ptr %5, align 4
  %37 = load ptr, ptr %6, align 8
  %38 = call noundef zeroext i1 @_ZL6onHulliiiPi(i32 noundef %34, i32 noundef %35, i32 noundef %36, ptr noundef %37)
  %39 = select i1 %38, i32 1, i32 0
  %40 = shl i32 %39, 0
  %41 = load i16, ptr %12, align 2
  %42 = zext i16 %41 to i32
  %43 = or i32 %42, %40
  %44 = trunc i32 %43 to i16
  store i16 %44, ptr %12, align 2
  %45 = load i32, ptr %10, align 4
  %46 = load i32, ptr %11, align 4
  %47 = load i32, ptr %5, align 4
  %48 = load ptr, ptr %6, align 8
  %49 = call noundef zeroext i1 @_ZL6onHulliiiPi(i32 noundef %45, i32 noundef %46, i32 noundef %47, ptr noundef %48)
  %50 = select i1 %49, i32 1, i32 0
  %51 = shl i32 %50, 2
  %52 = load i16, ptr %12, align 2
  %53 = zext i16 %52 to i32
  %54 = or i32 %53, %51
  %55 = trunc i32 %54 to i16
  store i16 %55, ptr %12, align 2
  %56 = load i32, ptr %11, align 4
  %57 = load i32, ptr %9, align 4
  %58 = load i32, ptr %5, align 4
  %59 = load ptr, ptr %6, align 8
  %60 = call noundef zeroext i1 @_ZL6onHulliiiPi(i32 noundef %56, i32 noundef %57, i32 noundef %58, ptr noundef %59)
  %61 = select i1 %60, i32 1, i32 0
  %62 = shl i32 %61, 4
  %63 = load i16, ptr %12, align 2
  %64 = zext i16 %63 to i32
  %65 = or i32 %64, %62
  %66 = trunc i32 %65 to i16
  store i16 %66, ptr %12, align 2
  %67 = load i16, ptr %12, align 2
  %68 = zext i16 %67 to i32
  %69 = load ptr, ptr %4, align 8
  %70 = load i32, ptr %8, align 4
  %71 = add nsw i32 %70, 3
  %72 = call noundef nonnull align 4 dereferenceable(4) ptr @_ZN10rcIntArrayixEi(ptr noundef nonnull align 8 dereferenceable(24) %69, i32 noundef %71)
  store i32 %68, ptr %72, align 4
  br label %73

73:                                               ; preds = %18
  %74 = load i32, ptr %8, align 4
  %75 = add nsw i32 %74, 4
  store i32 %75, ptr %8, align 4
  br label %13, !llvm.loop !54

76:                                               ; preds = %13
  ret void
}