; Function Attrs: mustprogress uwtable
define internal fastcc void @_ZL11setTriFlagsR10rcIntArrayiPi(ptr noundef nonnull readonly align 8 captures(none) dereferenceable(24) %0, i32 noundef %1, ptr noundef nonnull readonly captures(none) %2) unnamed_addr #0 {
  %4 = load i64, ptr %0, align 8
  %5 = trunc i64 %4 to i32
  %6 = icmp sgt i32 %5, 0
  br i1 %6, label %.lr.ph, label %._crit_edge

.lr.ph:                                           ; preds = %3
  %7 = getelementptr inbounds nuw i8, ptr %0, i64 16
  %8 = icmp sgt i32 %1, 0
  %9 = add nsw i32 %1, -1
  %wide.trip.count.i = zext nneg i32 %1 to i64
  br label %10

10:                                               ; preds = %.lr.ph, %_ZN10rcIntArrayixEi.exit57
  %indvars.iv = phi i64 [ 0, %.lr.ph ], [ %indvars.iv.next, %_ZN10rcIntArrayixEi.exit57 ]
  %11 = tail call noundef ptr @_Z21rcAssertFailGetCustomv()
  %12 = icmp eq ptr %11, null
  %13 = load i64, ptr %0, align 8
  %14 = icmp sgt i64 %13, %indvars.iv
  %or.cond = select i1 %12, i1 true, i1 %14
  br i1 %or.cond, label %_ZN10rcIntArrayixEi.exit, label %15

15:                                               ; preds = %10
  tail call void %11(ptr noundef nonnull @.str.22, ptr noundef nonnull @.str.12, i32 noundef 150)
  br label %_ZN10rcIntArrayixEi.exit

_ZN10rcIntArrayixEi.exit:                         ; preds = %10, %15
  %16 = load ptr, ptr %7, align 8
  %17 = getelementptr inbounds nuw i32, ptr %16, i64 %indvars.iv
  %18 = load i32, ptr %17, align 4
  %19 = or disjoint i64 %indvars.iv, 1
  %20 = tail call noundef ptr @_Z21rcAssertFailGetCustomv()
  %21 = icmp eq ptr %20, null
  %22 = load i64, ptr %0, align 8
  %23 = icmp sgt i64 %22, %19
  %or.cond62 = select i1 %21, i1 true, i1 %23
  br i1 %or.cond62, label %_ZN10rcIntArrayixEi.exit27, label %24

24:                                               ; preds = %_ZN10rcIntArrayixEi.exit
  tail call void %20(ptr noundef nonnull @.str.22, ptr noundef nonnull @.str.12, i32 noundef 150)
  br label %_ZN10rcIntArrayixEi.exit27

_ZN10rcIntArrayixEi.exit27:                       ; preds = %_ZN10rcIntArrayixEi.exit, %24
  %25 = load ptr, ptr %7, align 8
  %26 = getelementptr inbounds nuw i32, ptr %25, i64 %19
  %27 = load i32, ptr %26, align 4
  %28 = or disjoint i64 %indvars.iv, 2
  %29 = tail call noundef ptr @_Z21rcAssertFailGetCustomv()
  %30 = icmp eq ptr %29, null
  %31 = load i64, ptr %0, align 8
  %32 = icmp sgt i64 %31, %28
  %or.cond64 = select i1 %30, i1 true, i1 %32
  br i1 %or.cond64, label %_ZN10rcIntArrayixEi.exit29, label %33

33:                                               ; preds = %_ZN10rcIntArrayixEi.exit27
  tail call void %29(ptr noundef nonnull @.str.22, ptr noundef nonnull @.str.12, i32 noundef 150)
  br label %_ZN10rcIntArrayixEi.exit29

_ZN10rcIntArrayixEi.exit29:                       ; preds = %_ZN10rcIntArrayixEi.exit27, %33
  %34 = load ptr, ptr %7, align 8
  %35 = getelementptr inbounds nuw i32, ptr %34, i64 %28
  %36 = load i32, ptr %35, align 4
  %.not.i = icmp slt i32 %18, %1
  %.not19.i = icmp slt i32 %27, %1
  %or.cond.i = and i1 %.not.i, %.not19.i
  %or.cond25.i = and i1 %8, %or.cond.i
  br i1 %or.cond25.i, label %.lr.ph.i, label %_ZL6onHulliiiPi.exit

.lr.ph.i:                                         ; preds = %_ZN10rcIntArrayixEi.exit29, %45
  %indvars.iv.i = phi i64 [ %indvars.iv.next.i, %45 ], [ 0, %_ZN10rcIntArrayixEi.exit29 ]
  %.01420.i = phi i32 [ %46, %45 ], [ %9, %_ZN10rcIntArrayixEi.exit29 ]
  %37 = sext i32 %.01420.i to i64
  %38 = getelementptr inbounds i32, ptr %2, i64 %37
  %39 = load i32, ptr %38, align 4
  %40 = icmp eq i32 %18, %39
  br i1 %40, label %41, label %45

41:                                               ; preds = %.lr.ph.i
  %42 = getelementptr inbounds nuw i32, ptr %2, i64 %indvars.iv.i
  %43 = load i32, ptr %42, align 4
  %44 = icmp eq i32 %27, %43
  br i1 %44, label %_ZL6onHulliiiPi.exit, label %45

45:                                               ; preds = %41, %.lr.ph.i
  %indvars.iv.next.i = add nuw nsw i64 %indvars.iv.i, 1
  %46 = trunc nuw nsw i64 %indvars.iv.i to i32
  %exitcond.not.i = icmp eq i64 %indvars.iv.next.i, %wide.trip.count.i
  br i1 %exitcond.not.i, label %_ZL6onHulliiiPi.exit, label %.lr.ph.i, !llvm.loop !59

_ZL6onHulliiiPi.exit:                             ; preds = %41, %45, %_ZN10rcIntArrayixEi.exit29
  %.015.i = phi i32 [ 0, %_ZN10rcIntArrayixEi.exit29 ], [ 0, %45 ], [ 1, %41 ]
  %.not19.i31 = icmp slt i32 %36, %1
  %or.cond.i32 = and i1 %.not19.i, %.not19.i31
  %or.cond25.i33 = and i1 %8, %or.cond.i32
  br i1 %or.cond25.i33, label %.lr.ph.i37, label %_ZL6onHulliiiPi.exit42

.lr.ph.i37:                                       ; preds = %_ZL6onHulliiiPi.exit, %55
  %indvars.iv.i38 = phi i64 [ %indvars.iv.next.i40, %55 ], [ 0, %_ZL6onHulliiiPi.exit ]
  %.01420.i39 = phi i32 [ %56, %55 ], [ %9, %_ZL6onHulliiiPi.exit ]
  %47 = sext i32 %.01420.i39 to i64
  %48 = getelementptr inbounds i32, ptr %2, i64 %47
  %49 = load i32, ptr %48, align 4
  %50 = icmp eq i32 %27, %49
  br i1 %50, label %51, label %55

51:                                               ; preds = %.lr.ph.i37
  %52 = getelementptr inbounds nuw i32, ptr %2, i64 %indvars.iv.i38
  %53 = load i32, ptr %52, align 4
  %54 = icmp eq i32 %36, %53
  br i1 %54, label %_ZL6onHulliiiPi.exit42, label %55

55:                                               ; preds = %51, %.lr.ph.i37
  %indvars.iv.next.i40 = add nuw nsw i64 %indvars.iv.i38, 1
  %56 = trunc nuw nsw i64 %indvars.iv.i38 to i32
  %exitcond.not.i41 = icmp eq i64 %indvars.iv.next.i40, %wide.trip.count.i
  br i1 %exitcond.not.i41, label %_ZL6onHulliiiPi.exit42, label %.lr.ph.i37, !llvm.loop !59

_ZL6onHulliiiPi.exit42:                           ; preds = %55, %51, %_ZL6onHulliiiPi.exit
  %57 = phi i32 [ 0, %_ZL6onHulliiiPi.exit ], [ 0, %55 ], [ 4, %51 ]
  %58 = or disjoint i32 %57, %.015.i
  %or.cond.i45 = and i1 %.not.i, %.not19.i31
  %or.cond25.i46 = and i1 %8, %or.cond.i45
  br i1 %or.cond25.i46, label %.lr.ph.i50, label %_ZL6onHulliiiPi.exit55

.lr.ph.i50:                                       ; preds = %_ZL6onHulliiiPi.exit42, %67
  %indvars.iv.i51 = phi i64 [ %indvars.iv.next.i53, %67 ], [ 0, %_ZL6onHulliiiPi.exit42 ]
  %.01420.i52 = phi i32 [ %68, %67 ], [ %9, %_ZL6onHulliiiPi.exit42 ]
  %59 = sext i32 %.01420.i52 to i64
  %60 = getelementptr inbounds i32, ptr %2, i64 %59
  %61 = load i32, ptr %60, align 4
  %62 = icmp eq i32 %36, %61
  br i1 %62, label %63, label %67

63:                                               ; preds = %.lr.ph.i50
  %64 = getelementptr inbounds nuw i32, ptr %2, i64 %indvars.iv.i51
  %65 = load i32, ptr %64, align 4
  %66 = icmp eq i32 %18, %65
  br i1 %66, label %_ZL6onHulliiiPi.exit55, label %67

67:                                               ; preds = %63, %.lr.ph.i50
  %indvars.iv.next.i53 = add nuw nsw i64 %indvars.iv.i51, 1
  %68 = trunc nuw nsw i64 %indvars.iv.i51 to i32
  %exitcond.not.i54 = icmp eq i64 %indvars.iv.next.i53, %wide.trip.count.i
  br i1 %exitcond.not.i54, label %_ZL6onHulliiiPi.exit55, label %.lr.ph.i50, !llvm.loop !59

_ZL6onHulliiiPi.exit55:                           ; preds = %67, %63, %_ZL6onHulliiiPi.exit42
  %69 = phi i32 [ 0, %_ZL6onHulliiiPi.exit42 ], [ 0, %67 ], [ 16, %63 ]
  %70 = or disjoint i32 %58, %69
  %71 = or disjoint i64 %indvars.iv, 3
  %72 = tail call noundef ptr @_Z21rcAssertFailGetCustomv()
  %73 = icmp eq ptr %72, null
  %74 = load i64, ptr %0, align 8
  %75 = icmp sgt i64 %74, %71
  %or.cond66 = select i1 %73, i1 true, i1 %75
  br i1 %or.cond66, label %_ZN10rcIntArrayixEi.exit57, label %76

76:                                               ; preds = %_ZL6onHulliiiPi.exit55
  tail call void %72(ptr noundef nonnull @.str.22, ptr noundef nonnull @.str.12, i32 noundef 150)
  br label %_ZN10rcIntArrayixEi.exit57

_ZN10rcIntArrayixEi.exit57:                       ; preds = %_ZL6onHulliiiPi.exit55, %76
  %77 = load ptr, ptr %7, align 8
  %78 = getelementptr inbounds nuw i32, ptr %77, i64 %71
  store i32 %70, ptr %78, align 4
  %indvars.iv.next = add nuw nsw i64 %indvars.iv, 4
  %79 = load i64, ptr %0, align 8
  %80 = trunc i64 %79 to i32
  %81 = trunc nuw i64 %indvars.iv.next to i32
  %82 = icmp slt i32 %81, %80
  br i1 %82, label %10, label %._crit_edge, !llvm.loop !60

._crit_edge:                                      ; preds = %_ZN10rcIntArrayixEi.exit57, %3
  ret void
}